; Function Attrs: nounwind uwtable
define dso_local i64 @regprocout(ptr noundef readonly captures(none) %0) local_unnamed_addr #0 {
  %2 = getelementptr inbounds nuw i8, ptr %0, i64 32
  %3 = load i64, ptr %2, align 8
  %4 = trunc i64 %3 to i32
  %5 = icmp eq i32 %4, 0
  br i1 %5, label %6, label %8

6:                                                ; preds = %1
  %7 = tail call ptr @pstrdup(ptr noundef nonnull @.str.4) #9
  br label %43

8:                                                ; preds = %1
  %9 = and i64 %3, 4294967295
  %10 = tail call ptr @SearchSysCache1(i32 noundef 47, i64 noundef %9) #9
  %.not = icmp eq ptr %10, null
  br i1 %.not, label %40, label %11

11:                                               ; preds = %8
  %12 = getelementptr i8, ptr %10, i64 16
  %.val = load ptr, ptr %12, align 8
  %13 = getelementptr inbounds nuw i8, ptr %.val, i64 22
  %14 = load i8, ptr %13, align 2
  %15 = zext i8 %14 to i64
  %16 = getelementptr inbounds nuw i8, ptr %.val, i64 %15
  %17 = getelementptr inbounds nuw i8, ptr %16, i64 4
  %18 = load i32, ptr @Mode, align 4
  %19 = icmp eq i32 %18, 0
  br i1 %19, label %20, label %22

20:                                               ; preds = %11
  %21 = tail call ptr @pstrdup(ptr noundef nonnull %17) #9
  br label %39

22:                                               ; preds = %11
  %23 = tail call ptr @makeString(ptr noundef nonnull %17) #9
  %24 = tail call ptr @list_make1_impl(i32 noundef 1, ptr %23) #9
  %25 = tail call ptr @FuncnameGetCandidates(ptr noundef %24, i32 noundef -1, ptr noundef null, i1 noundef zeroext false, i1 noundef zeroext false, i1 noundef zeroext false, i1 noundef zeroext false) #9
  %.not25 = icmp eq ptr %25, null
  br i1 %.not25, label %33, label %26

26:                                               ; preds = %22
  %27 = load ptr, ptr %25, align 8
  %28 = icmp eq ptr %27, null
  br i1 %28, label %29, label %33

29:                                               ; preds = %26
  %30 = getelementptr inbounds nuw i8, ptr %25, i64 12
  %31 = load i32, ptr %30, align 4
  %32 = icmp eq i32 %31, %4
  br i1 %32, label %37, label %33

33:                                               ; preds = %29, %26, %22
  %34 = getelementptr inbounds nuw i8, ptr %16, i64 68
  %35 = load i32, ptr %34, align 4
  %36 = tail call ptr @get_namespace_name(i32 noundef %35) #9
  br label %37

37:                                               ; preds = %29, %33
  %.021 = phi ptr [ %36, %33 ], [ null, %29 ]
  %38 = tail call ptr @quote_qualified_identifier(ptr noundef %.021, ptr noundef nonnull %17) #9
  br label %39

39:                                               ; preds = %37, %20
  %.020 = phi ptr [ %21, %20 ], [ %38, %37 ]
  tail call void @ReleaseSysCache(ptr noundef nonnull %10) #9
  br label %43

40:                                               ; preds = %8
  %41 = tail call ptr @palloc(i64 noundef 64) #9
  %42 = tail call i32 (ptr, i64, ptr, ...) @pg_snprintf(ptr noundef %41, i64 noundef 64, ptr noundef nonnull @.str.5, i32 noundef %4) #9
  br label %43

43:                                               ; preds = %39, %40, %6
  %.0.in = phi ptr [ %7, %6 ], [ %.020, %39 ], [ %41, %40 ]
  %.0 = ptrtoint ptr %.0.in to i64
  ret i64 %.0
}